target datalayout = "e-m:e-p270:32:32-p271:32:32-p272:64:64-i64:64-i128:128-f80:128-n8:16:32:64-S128"
target triple = "x86_64-pc-linux-gnu"

%"class.(anonymous namespace)::itanium_demangle::Node.base" = type <{ ptr, i8, i16 }>
%"struct.(anonymous namespace)::itanium_demangle::ForwardTemplateReference" = type <{ %"class.(anonymous namespace)::itanium_demangle::Node.base", [5 x i8], i64, ptr, i8, [7 x i8] }>
%"class.(anonymous namespace)::itanium_demangle::ScopedOverride" = type <{ ptr, i8, [7 x i8] }>

; Function Attrs: mustprogress nounwind uwtable
define internal void @_ZN12_GLOBAL__N_116itanium_demangle14ScopedOverrideIbED2Ev(ptr noundef nonnull align 8 dereferenceable(9) %0) unnamed_addr #6 align 2 {
  %2 = alloca ptr, align 8
  store ptr %0, ptr %2, align 8, !tbaa !735
  %3 = load ptr, ptr %2, align 8
  %4 = getelementptr inbounds nuw %"class.(anonymous namespace)::itanium_demangle::ScopedOverride", ptr %3, i32 0, i32 1
  %5 = load i8, ptr %4, align 1, !tbaa !209, !range !210, !noundef !211
  %6 = trunc i8 %5 to i1
  %7 = getelementptr inbounds nuw %"class.(anonymous namespace)::itanium_demangle::ScopedOverride", ptr %3, i32 0, i32 0
  %8 = load ptr, ptr %7, align 8, !tbaa !739
  %9 = zext i1 %6 to i8
  store i8 %9, ptr %8, align 1, !tbaa !209
  ret void
}

; Function Attrs: mustprogress nounwind uwtable
define internal void @_ZN12_GLOBAL__N_116itanium_demangle14ScopedOverrideIbEC2ERbb(ptr noundef nonnull align 8 dereferenceable(9) %0, ptr noundef nonnull align 1 dereferenceable(1) %1, i1 noundef zeroext %2) unnamed_addr #6 align 2 {
  %4 = alloca ptr, align 8
  %5 = alloca ptr, align 8
  %6 = alloca i8, align 1
  store ptr %0, ptr %4, align 8, !tbaa !735
  store ptr %1, ptr %5, align 8, !tbaa !465
  %7 = zext i1 %2 to i8
  store i8 %7, ptr %6, align 1, !tbaa !209
  %8 = load ptr, ptr %4, align 8
  %9 = getelementptr inbounds nuw %"class.(anonymous namespace)::itanium_demangle::ScopedOverride", ptr %8, i32 0, i32 0
  %10 = load ptr, ptr %5, align 8, !tbaa !465
  store ptr %10, ptr %9, align 8, !tbaa !465
  %11 = getelementptr inbounds nuw %"class.(anonymous namespace)::itanium_demangle::ScopedOverride", ptr %8, i32 0, i32 1
  %12 = load ptr, ptr %5, align 8, !tbaa !465
  %13 = load i8, ptr %12, align 1, !tbaa !209, !range !210, !noundef !211
  %14 = trunc i8 %13 to i1
  %15 = zext i1 %14 to i8
  store i8 %15, ptr %11, align 8, !tbaa !737
  %16 = load i8, ptr %6, align 1, !tbaa !209, !range !210, !noundef !211
  %17 = trunc i8 %16 to i1
  %18 = load ptr, ptr %5, align 8, !tbaa !465
  %19 = zext i1 %17 to i8
  store i8 %19, ptr %18, align 1, !tbaa !209
  ret void
}

; Function Attrs: mustprogress uwtable
define internal void @_ZNK12_GLOBAL__N_116itanium_demangle24ForwardTemplateReference10printRightERNS0_12OutputBufferE(ptr noundef nonnull align 8 dereferenceable(33) %0, ptr noundef nonnull align 8 dereferenceable(44) %1) unnamed_addr #3 align 2 personality ptr @__gxx_personality_v0 {
  %3 = alloca ptr, align 8
  %4 = alloca ptr, align 8
  %5 = alloca %"class.(anonymous namespace)::itanium_demangle::ScopedOverride", align 8
  %6 = alloca ptr, align 8
  %7 = alloca i32, align 4
  store ptr %0, ptr %3, align 8, !tbaa !106
  store ptr %1, ptr %4, align 8, !tbaa !226
  %8 = load ptr, ptr %3, align 8
  %9 = getelementptr inbounds nuw %"struct.(anonymous namespace)::itanium_demangle::ForwardTemplateReference", ptr %8, i32 0, i32 4
  %10 = load i8, ptr %9, align 8, !tbaa !589, !range !210, !noundef !211
  %11 = trunc i8 %10 to i1
  br i1 %11, label %12, label %13

12:                                               ; preds = %2
  br label %22

13:                                               ; preds = %2
  call void @llvm.lifetime.start.p0(i64 16, ptr %5) #19
  %14 = getelementptr inbounds nuw %"struct.(anonymous namespace)::itanium_demangle::ForwardTemplateReference", ptr %8, i32 0, i32 4
  call void @_ZN12_GLOBAL__N_116itanium_demangle14ScopedOverrideIbEC2ERbb(ptr noundef nonnull align 8 dereferenceable(9) %5, ptr noundef nonnull align 1 dereferenceable(1) %14, i1 noundef zeroext true)
  %15 = load ptr, ptr %4, align 8, !tbaa !226
  %16 = getelementptr inbounds nuw %"struct.(anonymous namespace)::itanium_demangle::ForwardTemplateReference", ptr %8, i32 0, i32 3
  %17 = load ptr, ptr %16, align 8, !tbaa !587
  %18 = load ptr, ptr %15, align 8, !tbaa !232
  %19 = getelementptr inbounds ptr, ptr %18, i64 3
  %20 = load ptr, ptr %19, align 8
  invoke void %20(ptr noundef nonnull align 8 dereferenceable(44) %15, ptr noundef nonnull align 8 dereferenceable(11) %17)
          to label %21 unwind label %23

21:                                               ; preds = %13
  call void @_ZN12_GLOBAL__N_116itanium_demangle14ScopedOverrideIbED2Ev(ptr noundef nonnull align 8 dereferenceable(9) %5) #19
  call void @llvm.lifetime.end.p0(i64 16, ptr %5) #19
  br label %22

22:                                               ; preds = %21, %12
  ret void

23:                                               ; preds = %13
  %24 = landingpad { ptr, i32 }
          cleanup
  %25 = extractvalue { ptr, i32 } %24, 0
  store ptr %25, ptr %6, align 8
  %26 = extractvalue { ptr, i32 } %24, 1
  store i32 %26, ptr %7, align 4
  call void @_ZN12_GLOBAL__N_116itanium_demangle14ScopedOverrideIbED2Ev(ptr noundef nonnull align 8 dereferenceable(9) %5) #19
  call void @llvm.lifetime.end.p0(i64 16, ptr %5) #19
  br label %27

27:                                               ; preds = %23
  %28 = load ptr, ptr %6, align 8
  %29 = load i32, ptr %7, align 4
  %30 = insertvalue { ptr, i32 } poison, ptr %28, 0
  %31 = insertvalue { ptr, i32 } %30, i32 %29, 1
  resume { ptr, i32 } %31
}