; Function Attrs: mustprogress uwtable
define internal void @_ZNK12_GLOBAL__N_116itanium_demangle24ForwardTemplateReference10printRightERNS0_12OutputBufferE(ptr noundef nonnull align 8 captures(none) dereferenceable(33) %0, ptr noundef nonnull align 8 dereferenceable(44) %1) unnamed_addr #2 align 2 personality ptr @__gxx_personality_v0 {
  %3 = getelementptr inbounds nuw i8, ptr %0, i64 32
  %4 = load i8, ptr %3, align 8, !tbaa !339, !range !232, !noundef !233
  %5 = trunc nuw i8 %4 to i1
  br i1 %5, label %13, label %6

6:                                                ; preds = %2
  store i8 1, ptr %3, align 8, !tbaa !231
  %7 = getelementptr inbounds nuw i8, ptr %0, i64 24
  %8 = load ptr, ptr %7, align 8, !tbaa !337
  %9 = load ptr, ptr %1, align 8, !tbaa !214
  %10 = getelementptr inbounds nuw i8, ptr %9, i64 24
  %11 = load ptr, ptr %10, align 8
  invoke void %11(ptr noundef nonnull align 8 dereferenceable(44) %1, ptr noundef nonnull align 8 dereferenceable(11) %8)
          to label %12 unwind label %14

12:                                               ; preds = %6
  store i8 %4, ptr %3, align 8, !tbaa !231
  br label %13

13:                                               ; preds = %2, %12
  ret void

14:                                               ; preds = %6
  %15 = landingpad { ptr, i32 }
          cleanup
  store i8 %4, ptr %3, align 8, !tbaa !231
  resume { ptr, i32 } %15
}